Microsoft (R) Macro Assembler Version 5.10                  11/15/22 13:29:5
                                                             Page     1-1


 0000				AStack SEGMENT STACK
 0000  0200[				DW 512 DUP(?)
	   ????			
			 ]	
				
 0400				AStack ENDS
				
 0000				DATA SEGMENT
 0000  0000			        KEEP_CS DW 0
 0002  0000			        KEEP_IP DW 0
 0004				DATA ENDS
				
				
 0000				CODE SEGMENT
				ASSUME CS:CODE, DS:DATA, SS:AStack
				
 0000				IntToStr PROC
 0000  50			   	push AX ; —Å–æ—Ö—Ä–∞–Ω–µ–Ω–∏–µ —Ä–µ–≥–∏
				—Å—Ç—Ä–æ–≤
 0001  52			   	push DX
 0002  53			   	push BX
 0003  51			   	push CX
				
 0004  33 C9			   	xor CX, CX ; –æ–±–Ω—É–ª–µ–Ω–∏–µ CX –¥–ª
				—è —Ö—Ä–∞–Ω–µ–Ω–∏—è –∫–æ–ª-–≤–∞ —Å–∏–º–≤–æ–ª–æ–
				≤
 0006  BB 000A			   	mov BX, 10 ; –¥–µ–ª–∏—Ç–µ–ª—å 10
 0009				division:
 0009  33 D2			    xor DX,DX	; –æ–±–Ω—É–ª–µ–Ω–∏–µ DX
 000B  F7 F3			    div BX	; –¥–µ–ª–µ–Ω–∏–µ AX = (DX, AX)/
				BX, –æ—Å—Ç–∞—Ç–æ–∫ –≤ DX
 000D  80 C2 30			    add DL, '0' ; –ø–µ—Ä–µ–≤–æ–¥ —Ü–∏—Ñ—Ä—ã –≤ 
				—Å–∏–º–≤–æ–ª
 0010  52			    push DX	; —Å–æ—Ö—Ä–∞–Ω–µ–Ω–∏–µ –æ—Å—Ç–∞
				—Ç–∫–∞ –Ω–∞ —Å—Ç–µ–∫ 
 0011  41			    inc CX	; —É–≤–µ–ª–∏—á–∏—Ç—å —Å—á–µ—Ç—á
				–∏–∫
 0012  85 C0			    test AX, AX ; –ø—Ä–æ–≤–µ—Ä–∫–∞ AX
 0014  75 F3			    jnz division; –µ—Å–ª–∏ —á–∞—Å—Ç–Ω–æ–µ –Ω–µ 
				0, —Ç–æ –ø–æ–≤—Ç–æ—Ä—è–µ–º
 0016  B4 02			    mov ah, 02h
				    
 0018				print:
 0018  5A			    pop DX	; –¥–æ—Å—Ç–∞—Ç—å —Å–∏–º–≤–æ–ª –
				∏–∑ —Å—Ç–µ–∫–∞ CX —Ä–∞–∑
 0019  CD 21			    int 21h
 001B  E2 FB			    loop print	; –ø–æ–∫–∞ cx != 0 –≤—ã–ø–æ–ª–Ω
				–∏—Ç—å –ø–µ—Ä–µ—Ö–æ–¥
				
 001D  59			    pop CX	; –≤–µ—Ä–Ω—É—Ç—å –∑–Ω–∞—á–µ–Ω–∏
				—è —Å–æ —Å—Ç–µ–∫–∞
 001E  5B			    pop BX
 001F  5A			    pop DX
 0020  58			    pop AX
Microsoft (R) Macro Assembler Version 5.10                  11/15/22 13:29:5
                                                             Page     1-2


 0021  C3			    ret
 0022				IntToStr endp
				
				
 0022				GetTime PROC FAR
 0022  EB 37 90			       jmp time
 0025  0000				KEEP_SS DW 0
 0027  0000				KEEP_SP DW 0
 0029  0032[				Stack DB 50 dup(" ")
	   20			
			 ]	
				
 005B				time:
 005B  2E: 8C 16 0025 R			mov KEEP_SS, SS
 0060  2E: 89 26 0027 R			mov KEEP_SP, SP
 0065  BC ---- R			mov SP, SEG Stack
 0068  8E D4				mov SS, SP
 006A  BC 005B R			mov SP, offset time
				
 006D  50				push AX    ; —Å–æ—Ö—Ä–∞–Ω–µ–Ω–∏–µ –∏–∑–
				º–µ–Ω—è–µ–º—ã—Ö —Ä–µ–≥–∏—Å—Ç—Ä–æ–≤
 006E  51				push CX
 006F  52				push DX
					
 0070  B4 00				mov AH, 00h	; —á–∏—Ç–∞—Ç—å —á–∞—Å—ã
				 (—Å—á–µ—Ç—á–∏–∫ —Ç–∏–∫–æ–≤)
 0072  CD 1A				int 1Ah	; CX,DX = —Å—á–µ—Ç—á–∏–∫ —Ç–∏–∫
				–æ–≤
					
 0074  8B C1				mov AX, CX
 0076  E8 0000 R			call IntToStr
 0079  8B C2				mov AX, DX
 007B  E8 0000 R			call IntToStr
					
 007E  5A				pop DX
 007F  59				pop CX
 0080  58				pop AX   ; –≤–æ—Å—Å—Ç–∞–Ω–æ–≤–ª–µ–Ω–∏–µ
				 —Ä–µ–≥–∏—Å—Ç—Ä–æ–≤
				
 0081  2E: 8E 16 0025 R			mov SS, KEEP_SS 
 0086  2E: 8B 26 0027 R			mov SP, KEEP_SP
				
 008B  B0 20				mov AL, 20H
 008D  E6 20				out  20H,AL
 008F  CF				iret
 0090				GetTime ENDP
				
				
 0090				Main	PROC  FAR
 0090  1E				push DS
 0091  2B C0				sub AX,AX
 0093  50				push AX
 0094  B8 ---- R			mov AX, DATA
 0097  8E D8				mov DS, AX
Microsoft (R) Macro Assembler Version 5.10                  11/15/22 13:29:5
                                                             Page     1-3


				
 0099  B4 35				mov AH,35h ; –¥–∞—Ç—å –≤–µ–∫—Ç–æ—Ä –ø—Ä
				–µ—Ä—ã–≤–∞–Ω–∏—è
 009B  B0 60				mov AL,60h ; –Ω–æ–º–µ—Ä –≤–µ–∫—Ç–æ—Ä–∞
 009D  CD 21				int 21h    ; –≤—ã–∑–æ–≤ -> –≤—ã—Ö–æ–¥: 
				ES:BX = –∞–¥—Ä–µ—Å –æ–±—Ä–∞–±–æ—Ç—á–∏–∫–∞ –ø—Ä–
				µ—Ä—ã–≤–∞–Ω–∏—è
 009F  89 1E 0002 R			mov KEEP_IP, BX ; –∑–∞–ø–æ–º–∏–Ω–∞–Ω–∏–
				µ —Å–º–µ—â–µ–Ω–∏—è
 00A3  8C 06 0000 R			mov KEEP_CS, ES ; –∑–∞–ø–æ–º–∏–Ω–∞–Ω–∏–
				µ —Å–µ–≥–º–µ–Ω—Ç–∞
				
 00A7  1E				push DS
 00A8  BA 0022 R			mov DX, offset GetTime	; —Å–º–µ—â–µ–Ω–
				∏–µ –¥–ª—è –ø—Ä–æ—Ü–µ–¥—É—Ä—ã
 00AB  B8 ---- R			mov AX, seg GetTime	; —Å–µ–≥–º–µ–Ω—
				Ç –ø—Ä–æ—Ü–µ–¥—É—Ä—ã
 00AE  8E D8				mov DS, AX
 00B0  B4 25				mov AH, 25h 	; —Ñ—É–Ω–∫—Ü–∏—è —É—Å—Ç
				–∞–Ω–æ–≤–∫–∏ –≤–µ–∫—Ç–æ—Ä–∞
 00B2  B0 60				mov AL, 60h 	; –Ω–æ–º–µ—Ä –≤–µ–∫—Ç–æ
				—Ä–∞
 00B4  CD 21				int 21h 	; —É—Å—Ç–∞–Ω–æ–≤–∏—Ç—å 
				–≤–µ–∫—Ç–æ—Ä –ø—Ä–µ—Ä—ã–≤–∞–Ω–∏—è –Ω–∞ —É–∫–∞–∑
				–∞–Ω–Ω—ã–π –∞–¥—Ä–µ—Å –Ω–æ–≤–æ–≥–æ –æ–±—Ä–∞–±–æ
				—Ç—á–∏–∫–∞
 00B6  1F				pop DS
				
 00B7  CD 60				int 60h	; –≤—ã–∑–æ–≤ –ø—Ä–µ—Ä—ã–≤–∞–Ω–∏
				—è –ø–æ–ª—å–∑–æ–≤–∞—Ç–µ–ª—è
					
 00B9  FA				CLI 	; —Å–±—Ä–∞—Å—ã–≤–∞–µ—Ç —Ñ–ª–∞–≥
				 –ø—Ä–µ—Ä—ã–≤–∞–Ω–∏—è IF
 00BA  1E				push DS
 00BB  8B 16 0002 R			mov DX, KEEP_IP
 00BF  A1 0000 R			mov AX, KEEP_CS
 00C2  8E D8				mov DS, AX
 00C4  B4 25				mov AH, 25h
 00C6  B0 60				mov AL, 60h
 00C8  CD 21				int 21h
 00CA  1F				pop DS
 00CB  FB				STI 
				
 00CC  CB				ret
 00CD				Main ENDP
 00CD				CODE ENDS
					END Main
Microsoft (R) Macro Assembler Version 5.10                  11/15/22 13:29:5
                                                             Symbols-1


Segments and Groups:

                N a m e         	Length	 Align	Combine Class

ASTACK . . . . . . . . . . . . .  	0400	PARA	STACK	
CODE . . . . . . . . . . . . . .  	00CD	PARA	NONE	
DATA . . . . . . . . . . . . . .  	0004	PARA	NONE	

Symbols:            

                N a m e         	Type	 Value	 Attr

DIVISION . . . . . . . . . . . .  	L NEAR	0009	CODE

GETTIME  . . . . . . . . . . . .  	F PROC	0022	CODE	Length = 006E

INTTOSTR . . . . . . . . . . . .  	N PROC	0000	CODE	Length = 0022

KEEP_CS  . . . . . . . . . . . .  	L WORD	0000	DATA
KEEP_IP  . . . . . . . . . . . .  	L WORD	0002	DATA
KEEP_SP  . . . . . . . . . . . .  	L WORD	0027	CODE
KEEP_SS  . . . . . . . . . . . .  	L WORD	0025	CODE

MAIN . . . . . . . . . . . . . .  	F PROC	0090	CODE	Length = 003D

PRINT  . . . . . . . . . . . . .  	L NEAR	0018	CODE

STACK  . . . . . . . . . . . . .  	L BYTE	0029	CODE	Length = 0032

TIME . . . . . . . . . . . . . .  	L NEAR	005B	CODE

@CPU . . . . . . . . . . . . . .  	TEXT  0101h		
@FILENAME  . . . . . . . . . . .  	TEXT  LB5		
@VERSION . . . . . . . . . . . .  	TEXT  510		


    120 Source  Lines
    120 Total   Lines
     19 Symbols

  48012 + 457198 Bytes symbol space free

      0 Warning Errors
      0 Severe  Errors
